
USB_NRF.elf:     file format elf32-avr

Sections:
Idx Name          Size      VMA       LMA       File off  Algn
  0 .text         00000334  00000000  00000000  000000b4  2**1
                  CONTENTS, ALLOC, LOAD, READONLY, CODE
  1 .data         0000003c  00800060  00000334  000003e8  2**0
                  CONTENTS, ALLOC, LOAD, DATA
  2 .bss          00000018  0080009c  0080009c  00000424  2**0
                  ALLOC
  3 .eeprom       00000065  00810000  00810000  00000424  2**0
                  CONTENTS, ALLOC, LOAD, READONLY, DATA
  4 .comment      00000030  00000000  00000000  00000489  2**0
                  CONTENTS, READONLY
  5 .note.gnu.avr.deviceinfo 00000040  00000000  00000000  000004bc  2**2
                  CONTENTS, READONLY
  6 .debug_aranges 00000020  00000000  00000000  00000500  2**3
                  CONTENTS, READONLY, DEBUGGING
  7 .debug_info   00000053  00000000  00000000  00000520  2**0
                  CONTENTS, READONLY, DEBUGGING
  8 .debug_abbrev 00000014  00000000  00000000  00000573  2**0
                  CONTENTS, READONLY, DEBUGGING
  9 .debug_line   0000067d  00000000  00000000  00000587  2**0
                  CONTENTS, READONLY, DEBUGGING

Disassembly of section .text:

00000000 <__vectors>:
   0:	14 c0       	rjmp	.+40     	; 0x2a <__ctors_end>
   2:	2c c0       	rjmp	.+88     	; 0x5c <__bad_interrupt>
   4:	2b c0       	rjmp	.+86     	; 0x5c <__bad_interrupt>
   6:	2a c0       	rjmp	.+84     	; 0x5c <__bad_interrupt>
   8:	29 c0       	rjmp	.+82     	; 0x5c <__bad_interrupt>
   a:	28 c0       	rjmp	.+80     	; 0x5c <__bad_interrupt>
   c:	27 c0       	rjmp	.+78     	; 0x5c <__bad_interrupt>
   e:	12 c1       	rjmp	.+548    	; 0x234 <__vector_7>
  10:	25 c0       	rjmp	.+74     	; 0x5c <__bad_interrupt>
  12:	24 c0       	rjmp	.+72     	; 0x5c <__bad_interrupt>
  14:	23 c0       	rjmp	.+70     	; 0x5c <__bad_interrupt>
  16:	22 c0       	rjmp	.+68     	; 0x5c <__bad_interrupt>
  18:	21 c0       	rjmp	.+66     	; 0x5c <__bad_interrupt>
  1a:	20 c0       	rjmp	.+64     	; 0x5c <__bad_interrupt>
  1c:	1f c0       	rjmp	.+62     	; 0x5c <__bad_interrupt>
  1e:	1e c0       	rjmp	.+60     	; 0x5c <__bad_interrupt>
  20:	1d c0       	rjmp	.+58     	; 0x5c <__bad_interrupt>
  22:	1c c0       	rjmp	.+56     	; 0x5c <__bad_interrupt>
  24:	1b c0       	rjmp	.+54     	; 0x5c <__bad_interrupt>
  26:	1a c0       	rjmp	.+52     	; 0x5c <__bad_interrupt>
  28:	19 c0       	rjmp	.+50     	; 0x5c <__bad_interrupt>

0000002a <__ctors_end>:
  2a:	11 24       	eor	r1, r1
  2c:	1f be       	out	0x3f, r1	; 63
  2e:	cf ed       	ldi	r28, 0xDF	; 223
  30:	cd bf       	out	0x3d, r28	; 61

00000032 <__do_copy_data>:
  32:	10 e0       	ldi	r17, 0x00	; 0
  34:	a0 e6       	ldi	r26, 0x60	; 96
  36:	b0 e0       	ldi	r27, 0x00	; 0
  38:	e4 e3       	ldi	r30, 0x34	; 52
  3a:	f3 e0       	ldi	r31, 0x03	; 3
  3c:	02 c0       	rjmp	.+4      	; 0x42 <__SREG__+0x3>
  3e:	05 90       	lpm	r0, Z+
  40:	0d 92       	st	X+, r0
  42:	ac 39       	cpi	r26, 0x9C	; 156
  44:	b1 07       	cpc	r27, r17
  46:	d9 f7       	brne	.-10     	; 0x3e <__SP_L__+0x1>

00000048 <__do_clear_bss>:
  48:	20 e0       	ldi	r18, 0x00	; 0
  4a:	ac e9       	ldi	r26, 0x9C	; 156
  4c:	b0 e0       	ldi	r27, 0x00	; 0
  4e:	01 c0       	rjmp	.+2      	; 0x52 <.do_clear_bss_start>

00000050 <.do_clear_bss_loop>:
  50:	1d 92       	st	X+, r1

00000052 <.do_clear_bss_start>:
  52:	a4 3b       	cpi	r26, 0xB4	; 180
  54:	b2 07       	cpc	r27, r18
  56:	e1 f7       	brne	.-8      	; 0x50 <.do_clear_bss_loop>
  58:	36 d1       	rcall	.+620    	; 0x2c6 <main>
  5a:	6a c1       	rjmp	.+724    	; 0x330 <_exit>

0000005c <__bad_interrupt>:
  5c:	d1 cf       	rjmp	.-94     	; 0x0 <__vectors>

0000005e <rf24_init>:
  5e:	94 9a       	sbi	0x12, 4	; 18
  60:	96 98       	cbi	0x12, 6	; 18
  62:	81 b3       	in	r24, 0x11	; 17
  64:	80 65       	ori	r24, 0x50	; 80
  66:	81 bb       	out	0x11, r24	; 17
  68:	08 95       	ret

0000006a <rf24_cmd_status>:
  6a:	94 98       	cbi	0x12, 4	; 18
  6c:	cd d0       	rcall	.+410    	; 0x208 <spi_wr_rd_byte>
  6e:	94 9a       	sbi	0x12, 4	; 18
  70:	08 95       	ret

00000072 <rf24_wr2_rd>:
  72:	cf 93       	push	r28
  74:	df 93       	push	r29
  76:	1f 92       	push	r1
  78:	cd b7       	in	r28, 0x3d	; 61
  7a:	dd 27       	eor	r29, r29
  7c:	94 98       	cbi	0x12, 4	; 18
  7e:	69 83       	std	Y+1, r22	; 0x01
  80:	c3 d0       	rcall	.+390    	; 0x208 <spi_wr_rd_byte>
  82:	69 81       	ldd	r22, Y+1	; 0x01
  84:	86 2f       	mov	r24, r22
  86:	c0 d0       	rcall	.+384    	; 0x208 <spi_wr_rd_byte>
  88:	94 9a       	sbi	0x12, 4	; 18
  8a:	0f 90       	pop	r0
  8c:	df 91       	pop	r29
  8e:	cf 91       	pop	r28
  90:	08 95       	ret

00000092 <rf_switch_bank>:
  92:	cf 93       	push	r28
  94:	c8 2f       	mov	r28, r24
  96:	87 e0       	ldi	r24, 0x07	; 7
  98:	e8 df       	rcall	.-48     	; 0x6a <rf24_cmd_status>
  9a:	80 78       	andi	r24, 0x80	; 128
  9c:	8c 17       	cp	r24, r28
  9e:	21 f0       	breq	.+8      	; 0xa8 <rf_switch_bank+0x16>
  a0:	63 e5       	ldi	r22, 0x53	; 83
  a2:	80 e5       	ldi	r24, 0x50	; 80
  a4:	cf 91       	pop	r28
  a6:	e5 cf       	rjmp	.-54     	; 0x72 <rf24_wr2_rd>
  a8:	cf 91       	pop	r28
  aa:	08 95       	ret

000000ac <SetupArr>:
  ac:	0f 93       	push	r16
  ae:	1f 93       	push	r17
  b0:	cf 93       	push	r28
  b2:	df 93       	push	r29
  b4:	d6 2f       	mov	r29, r22
  b6:	c0 e0       	ldi	r28, 0x00	; 0
  b8:	8c 01       	movw	r16, r24
  ba:	0f 5f       	subi	r16, 0xFF	; 255
  bc:	1f 4f       	sbci	r17, 0xFF	; 255
  be:	31 d1       	rcall	.+610    	; 0x322 <eeprom_read_byte>
  c0:	cc 23       	and	r28, r28
  c2:	11 f0       	breq	.+4      	; 0xc8 <SetupArr+0x1c>
  c4:	c1 50       	subi	r28, 0x01	; 1
  c6:	0e c0       	rjmp	.+28     	; 0xe4 <__stack+0x5>
  c8:	94 9a       	sbi	0x12, 4	; 18
  ca:	88 23       	and	r24, r24
  cc:	71 f0       	breq	.+28     	; 0xea <__stack+0xb>
  ce:	d1 11       	cpse	r29, r1
  d0:	07 c0       	rjmp	.+14     	; 0xe0 <__stack+0x1>
  d2:	c8 2f       	mov	r28, r24
  d4:	c2 95       	swap	r28
  d6:	c6 95       	lsr	r28
  d8:	c7 70       	andi	r28, 0x07	; 7
  da:	8f 71       	andi	r24, 0x1F	; 31
  dc:	80 62       	ori	r24, 0x20	; 32
  de:	01 c0       	rjmp	.+2      	; 0xe2 <__stack+0x3>
  e0:	c1 e0       	ldi	r28, 0x01	; 1
  e2:	94 98       	cbi	0x12, 4	; 18
  e4:	91 d0       	rcall	.+290    	; 0x208 <spi_wr_rd_byte>
  e6:	c8 01       	movw	r24, r16
  e8:	e7 cf       	rjmp	.-50     	; 0xb8 <SetupArr+0xc>
  ea:	df 91       	pop	r29
  ec:	cf 91       	pop	r28
  ee:	1f 91       	pop	r17
  f0:	0f 91       	pop	r16
  f2:	08 95       	ret

000000f4 <SetupAdr>:
  f4:	1f 93       	push	r17
  f6:	cf 93       	push	r28
  f8:	df 93       	push	r29
  fa:	1f 92       	push	r1
  fc:	cd b7       	in	r28, 0x3d	; 61
  fe:	dd 27       	eor	r29, r29
 100:	80 62       	ori	r24, 0x20	; 32
 102:	94 98       	cbi	0x12, 4	; 18
 104:	69 83       	std	Y+1, r22	; 0x01
 106:	80 d0       	rcall	.+256    	; 0x208 <spi_wr_rd_byte>
 108:	69 81       	ldd	r22, Y+1	; 0x01
 10a:	69 30       	cpi	r22, 0x09	; 9
 10c:	68 f4       	brcc	.+26     	; 0x128 <SetupAdr+0x34>
 10e:	11 e0       	ldi	r17, 0x01	; 1
 110:	16 0f       	add	r17, r22
 112:	86 2f       	mov	r24, r22
 114:	90 e0       	ldi	r25, 0x00	; 0
 116:	8b 5e       	subi	r24, 0xEB	; 235
 118:	9f 4f       	sbci	r25, 0xFF	; 255
 11a:	03 d1       	rcall	.+518    	; 0x322 <eeprom_read_byte>
 11c:	16 30       	cpi	r17, 0x06	; 6
 11e:	10 f0       	brcs	.+4      	; 0x124 <SetupAdr+0x30>
 120:	61 2f       	mov	r22, r17
 122:	f0 cf       	rjmp	.-32     	; 0x104 <SetupAdr+0x10>
 124:	16 e0       	ldi	r17, 0x06	; 6
 126:	fc cf       	rjmp	.-8      	; 0x120 <SetupAdr+0x2c>
 128:	94 9a       	sbi	0x12, 4	; 18
 12a:	0f 90       	pop	r0
 12c:	df 91       	pop	r29
 12e:	cf 91       	pop	r28
 130:	1f 91       	pop	r17
 132:	08 95       	ret

00000134 <nrf_init>:
 134:	94 df       	rcall	.-216    	; 0x5e <rf24_init>
 136:	80 e8       	ldi	r24, 0x80	; 128
 138:	ac df       	rcall	.-168    	; 0x92 <rf_switch_bank>
 13a:	60 e0       	ldi	r22, 0x00	; 0
 13c:	8f e1       	ldi	r24, 0x1F	; 31
 13e:	90 e0       	ldi	r25, 0x00	; 0
 140:	b5 df       	rcall	.-150    	; 0xac <SetupArr>
 142:	80 e0       	ldi	r24, 0x00	; 0
 144:	a6 df       	rcall	.-180    	; 0x92 <rf_switch_bank>
 146:	61 e0       	ldi	r22, 0x01	; 1
 148:	80 e0       	ldi	r24, 0x00	; 0
 14a:	90 e0       	ldi	r25, 0x00	; 0
 14c:	af df       	rcall	.-162    	; 0xac <SetupArr>
 14e:	60 e0       	ldi	r22, 0x00	; 0
 150:	80 e1       	ldi	r24, 0x10	; 16
 152:	d0 df       	rcall	.-96     	; 0xf4 <SetupAdr>
 154:	60 e0       	ldi	r22, 0x00	; 0
 156:	8a e0       	ldi	r24, 0x0A	; 10
 158:	cd df       	rcall	.-102    	; 0xf4 <SetupAdr>
 15a:	8f e0       	ldi	r24, 0x0F	; 15
 15c:	97 e2       	ldi	r25, 0x27	; 39
 15e:	01 97       	sbiw	r24, 0x01	; 1
 160:	f1 f7       	brne	.-4      	; 0x15e <nrf_init+0x2a>
 162:	00 c0       	rjmp	.+0      	; 0x164 <nrf_init+0x30>
 164:	00 00       	nop
 166:	08 95       	ret

00000168 <scan08_graf>:
 168:	6f ef       	ldi	r22, 0xFF	; 255
 16a:	80 e0       	ldi	r24, 0x00	; 0
 16c:	82 df       	rcall	.-252    	; 0x72 <rf24_wr2_rd>
 16e:	68 2f       	mov	r22, r24
 170:	61 60       	ori	r22, 0x01	; 1
 172:	80 e2       	ldi	r24, 0x20	; 32
 174:	7e df       	rcall	.-260    	; 0x72 <rf24_wr2_rd>
 176:	96 98       	cbi	0x12, 6	; 18
 178:	cf ef       	ldi	r28, 0xFF	; 255
 17a:	2f ef       	ldi	r18, 0xFF	; 255
 17c:	84 e3       	ldi	r24, 0x34	; 52
 17e:	9c e0       	ldi	r25, 0x0C	; 12
 180:	21 50       	subi	r18, 0x01	; 1
 182:	80 40       	sbci	r24, 0x00	; 0
 184:	90 40       	sbci	r25, 0x00	; 0
 186:	e1 f7       	brne	.-8      	; 0x180 <scan08_graf+0x18>
 188:	00 c0       	rjmp	.+0      	; 0x18a <scan08_graf+0x22>
 18a:	00 00       	nop
 18c:	84 e9       	ldi	r24, 0x94	; 148
 18e:	90 e0       	ldi	r25, 0x00	; 0
 190:	44 d0       	rcall	.+136    	; 0x21a <usart_send_str>
 192:	d0 e0       	ldi	r29, 0x00	; 0
 194:	1f ef       	ldi	r17, 0xFF	; 255
 196:	6d 2f       	mov	r22, r29
 198:	85 e2       	ldi	r24, 0x25	; 37
 19a:	6b df       	rcall	.-298    	; 0x72 <rf24_wr2_rd>
 19c:	82 ee       	ldi	r24, 0xE2	; 226
 19e:	65 df       	rcall	.-310    	; 0x6a <rf24_cmd_status>
 1a0:	6f ef       	ldi	r22, 0xFF	; 255
 1a2:	87 e0       	ldi	r24, 0x07	; 7
 1a4:	66 df       	rcall	.-308    	; 0x72 <rf24_wr2_rd>
 1a6:	68 2f       	mov	r22, r24
 1a8:	60 67       	ori	r22, 0x70	; 112
 1aa:	87 e2       	ldi	r24, 0x27	; 39
 1ac:	62 df       	rcall	.-316    	; 0x72 <rf24_wr2_rd>
 1ae:	8f e8       	ldi	r24, 0x8F	; 143
 1b0:	91 e0       	ldi	r25, 0x01	; 1
 1b2:	01 97       	sbiw	r24, 0x01	; 1
 1b4:	f1 f7       	brne	.-4      	; 0x1b2 <scan08_graf+0x4a>
 1b6:	00 c0       	rjmp	.+0      	; 0x1b8 <scan08_graf+0x50>
 1b8:	00 00       	nop
 1ba:	96 9a       	sbi	0x12, 6	; 18
 1bc:	87 e7       	ldi	r24, 0x77	; 119
 1be:	95 e0       	ldi	r25, 0x05	; 5
 1c0:	01 97       	sbiw	r24, 0x01	; 1
 1c2:	f1 f7       	brne	.-4      	; 0x1c0 <scan08_graf+0x58>
 1c4:	00 c0       	rjmp	.+0      	; 0x1c6 <scan08_graf+0x5e>
 1c6:	00 00       	nop
 1c8:	96 98       	cbi	0x12, 6	; 18
 1ca:	6f ef       	ldi	r22, 0xFF	; 255
 1cc:	89 e0       	ldi	r24, 0x09	; 9
 1ce:	51 df       	rcall	.-350    	; 0x72 <rf24_wr2_rd>
 1d0:	c8 17       	cp	r28, r24
 1d2:	20 f4       	brcc	.+8      	; 0x1dc <scan08_graf+0x74>
 1d4:	80 5e       	subi	r24, 0xE0	; 224
 1d6:	28 2f       	mov	r18, r24
 1d8:	2c 1b       	sub	r18, r28
 1da:	04 c0       	rjmp	.+8      	; 0x1e4 <scan08_graf+0x7c>
 1dc:	81 17       	cp	r24, r17
 1de:	08 f4       	brcc	.+2      	; 0x1e2 <scan08_graf+0x7a>
 1e0:	18 2f       	mov	r17, r24
 1e2:	20 e2       	ldi	r18, 0x20	; 32
 1e4:	8c 2f       	mov	r24, r28
 1e6:	90 e0       	ldi	r25, 0x00	; 0
 1e8:	63 e0       	ldi	r22, 0x03	; 3
 1ea:	70 e0       	ldi	r23, 0x00	; 0
 1ec:	89 d0       	rcall	.+274    	; 0x300 <__mulhi3>
 1ee:	81 0f       	add	r24, r17
 1f0:	91 1d       	adc	r25, r1
 1f2:	96 95       	lsr	r25
 1f4:	87 95       	ror	r24
 1f6:	96 95       	lsr	r25
 1f8:	87 95       	ror	r24
 1fa:	c8 2f       	mov	r28, r24
 1fc:	82 2f       	mov	r24, r18
 1fe:	16 d0       	rcall	.+44     	; 0x22c <usart_send_char>
 200:	df 5f       	subi	r29, 0xFF	; 255
 202:	df 3f       	cpi	r29, 0xFF	; 255
 204:	41 f6       	brne	.-112    	; 0x196 <scan08_graf+0x2e>
 206:	b9 cf       	rjmp	.-142    	; 0x17a <scan08_graf+0x12>

00000208 <spi_wr_rd_byte>:
 208:	8f b9       	out	0x0f, r24	; 15
 20a:	76 9a       	sbi	0x0e, 6	; 14
 20c:	8b e1       	ldi	r24, 0x1B	; 27
 20e:	76 99       	sbic	0x0e, 6	; 14
 210:	02 c0       	rjmp	.+4      	; 0x216 <spi_wr_rd_byte+0xe>
 212:	8d b9       	out	0x0d, r24	; 13
 214:	fc cf       	rjmp	.-8      	; 0x20e <spi_wr_rd_byte+0x6>
 216:	8f b1       	in	r24, 0x0f	; 15
 218:	08 95       	ret

0000021a <usart_send_str>:
 21a:	fc 01       	movw	r30, r24
 21c:	91 91       	ld	r25, Z+
 21e:	99 23       	and	r25, r25
 220:	21 f0       	breq	.+8      	; 0x22a <usart_send_str+0x10>
 222:	5d 9b       	sbis	0x0b, 5	; 11
 224:	fe cf       	rjmp	.-4      	; 0x222 <usart_send_str+0x8>
 226:	9c b9       	out	0x0c, r25	; 12
 228:	f9 cf       	rjmp	.-14     	; 0x21c <usart_send_str+0x2>
 22a:	08 95       	ret

0000022c <usart_send_char>:
 22c:	5d 9b       	sbis	0x0b, 5	; 11
 22e:	fe cf       	rjmp	.-4      	; 0x22c <usart_send_char>
 230:	8c b9       	out	0x0c, r24	; 12
 232:	08 95       	ret

00000234 <__vector_7>:
 234:	1f 92       	push	r1
 236:	0f 92       	push	r0
 238:	0f b6       	in	r0, 0x3f	; 63
 23a:	0f 92       	push	r0
 23c:	11 24       	eor	r1, r1
 23e:	2f 93       	push	r18
 240:	3f 93       	push	r19
 242:	4f 93       	push	r20
 244:	8f 93       	push	r24
 246:	9f 93       	push	r25
 248:	ef 93       	push	r30
 24a:	ff 93       	push	r31
 24c:	80 91 b0 00 	lds	r24, 0x00B0	; 0x8000b0 <buff+0x12>
 250:	88 23       	and	r24, r24
 252:	19 f0       	breq	.+6      	; 0x25a <__vector_7+0x26>
 254:	81 30       	cpi	r24, 0x01	; 1
 256:	41 f0       	breq	.+16     	; 0x268 <__vector_7+0x34>
 258:	2a c0       	rjmp	.+84     	; 0x2ae <__vector_7+0x7a>
 25a:	81 e0       	ldi	r24, 0x01	; 1
 25c:	80 93 b0 00 	sts	0x00B0, r24	; 0x8000b0 <buff+0x12>
 260:	10 92 b1 00 	sts	0x00B1, r1	; 0x8000b1 <buff+0x13>
 264:	10 92 af 00 	sts	0x00AF, r1	; 0x8000af <buff+0x11>
 268:	80 91 b1 00 	lds	r24, 0x00B1	; 0x8000b1 <buff+0x13>
 26c:	81 11       	cpse	r24, r1
 26e:	1f c0       	rjmp	.+62     	; 0x2ae <__vector_7+0x7a>
 270:	2c b1       	in	r18, 0x0c	; 12
 272:	2a 30       	cpi	r18, 0x0A	; 10
 274:	61 f0       	breq	.+24     	; 0x28e <__vector_7+0x5a>
 276:	2d 30       	cpi	r18, 0x0D	; 13
 278:	51 f0       	breq	.+20     	; 0x28e <__vector_7+0x5a>
 27a:	41 e0       	ldi	r20, 0x01	; 1
 27c:	30 e0       	ldi	r19, 0x00	; 0
 27e:	80 91 af 00 	lds	r24, 0x00AF	; 0x8000af <buff+0x11>
 282:	80 31       	cpi	r24, 0x10	; 16
 284:	08 f4       	brcc	.+2      	; 0x288 <__vector_7+0x54>
 286:	40 e0       	ldi	r20, 0x00	; 0
 288:	84 2f       	mov	r24, r20
 28a:	93 2f       	mov	r25, r19
 28c:	02 c0       	rjmp	.+4      	; 0x292 <__vector_7+0x5e>
 28e:	81 e0       	ldi	r24, 0x01	; 1
 290:	90 e0       	ldi	r25, 0x00	; 0
 292:	80 93 b1 00 	sts	0x00B1, r24	; 0x8000b1 <buff+0x13>
 296:	89 2b       	or	r24, r25
 298:	51 f4       	brne	.+20     	; 0x2ae <__vector_7+0x7a>
 29a:	e0 91 af 00 	lds	r30, 0x00AF	; 0x8000af <buff+0x11>
 29e:	81 e0       	ldi	r24, 0x01	; 1
 2a0:	8e 0f       	add	r24, r30
 2a2:	80 93 af 00 	sts	0x00AF, r24	; 0x8000af <buff+0x11>
 2a6:	f0 e0       	ldi	r31, 0x00	; 0
 2a8:	e2 56       	subi	r30, 0x62	; 98
 2aa:	ff 4f       	sbci	r31, 0xFF	; 255
 2ac:	21 83       	std	Z+1, r18	; 0x01
 2ae:	ff 91       	pop	r31
 2b0:	ef 91       	pop	r30
 2b2:	9f 91       	pop	r25
 2b4:	8f 91       	pop	r24
 2b6:	4f 91       	pop	r20
 2b8:	3f 91       	pop	r19
 2ba:	2f 91       	pop	r18
 2bc:	0f 90       	pop	r0
 2be:	0f be       	out	0x3f, r0	; 63
 2c0:	0f 90       	pop	r0
 2c2:	1f 90       	pop	r1
 2c4:	18 95       	reti

000002c6 <main>:
 2c6:	87 b3       	in	r24, 0x17	; 23
 2c8:	8f 61       	ori	r24, 0x1F	; 31
 2ca:	87 bb       	out	0x17, r24	; 23
 2cc:	c4 9a       	sbi	0x18, 4	; 24
 2ce:	c3 9a       	sbi	0x18, 3	; 24
 2d0:	87 b3       	in	r24, 0x17	; 23
 2d2:	80 6c       	ori	r24, 0xC0	; 192
 2d4:	87 bb       	out	0x17, r24	; 23
 2d6:	59 9a       	sbi	0x0b, 1	; 11
 2d8:	12 b8       	out	0x02, r1	; 2
 2da:	87 e6       	ldi	r24, 0x67	; 103
 2dc:	89 b9       	out	0x09, r24	; 9
 2de:	88 e1       	ldi	r24, 0x18	; 24
 2e0:	8a b9       	out	0x0a, r24	; 10
 2e2:	8e e0       	ldi	r24, 0x0E	; 14
 2e4:	83 b9       	out	0x03, r24	; 3
 2e6:	57 9a       	sbi	0x0a, 7	; 10
 2e8:	15 be       	out	0x35, r1	; 53
 2ea:	86 e1       	ldi	r24, 0x16	; 22
 2ec:	91 e0       	ldi	r25, 0x01	; 1
 2ee:	90 93 9d 00 	sts	0x009D, r25	; 0x80009d <__data_end+0x1>
 2f2:	80 93 9c 00 	sts	0x009C, r24	; 0x80009c <__data_end>
 2f6:	1e df       	rcall	.-452    	; 0x134 <nrf_init>
 2f8:	37 df       	rcall	.-402    	; 0x168 <scan08_graf>
 2fa:	80 e0       	ldi	r24, 0x00	; 0
 2fc:	90 e0       	ldi	r25, 0x00	; 0
 2fe:	08 95       	ret

00000300 <__mulhi3>:
 300:	00 24       	eor	r0, r0
 302:	55 27       	eor	r21, r21
 304:	04 c0       	rjmp	.+8      	; 0x30e <__mulhi3+0xe>
 306:	08 0e       	add	r0, r24
 308:	59 1f       	adc	r21, r25
 30a:	88 0f       	add	r24, r24
 30c:	99 1f       	adc	r25, r25
 30e:	00 97       	sbiw	r24, 0x00	; 0
 310:	29 f0       	breq	.+10     	; 0x31c <__mulhi3+0x1c>
 312:	76 95       	lsr	r23
 314:	67 95       	ror	r22
 316:	b8 f3       	brcs	.-18     	; 0x306 <__mulhi3+0x6>
 318:	71 05       	cpc	r23, r1
 31a:	b9 f7       	brne	.-18     	; 0x30a <__mulhi3+0xa>
 31c:	80 2d       	mov	r24, r0
 31e:	95 2f       	mov	r25, r21
 320:	08 95       	ret

00000322 <eeprom_read_byte>:
 322:	e1 99       	sbic	0x1c, 1	; 28
 324:	fe cf       	rjmp	.-4      	; 0x322 <eeprom_read_byte>
 326:	8e bb       	out	0x1e, r24	; 30
 328:	e0 9a       	sbi	0x1c, 0	; 28
 32a:	99 27       	eor	r25, r25
 32c:	8d b3       	in	r24, 0x1d	; 29
 32e:	08 95       	ret

00000330 <_exit>:
 330:	f8 94       	cli

00000332 <__stop_program>:
 332:	ff cf       	rjmp	.-2      	; 0x332 <__stop_program>
